; Function Attrs: mustprogress nounwind uwtable
define hidden void @_ZN3fmt3v1113buffered_fileD2Ev(ptr noundef nonnull readonly align 8 captures(none) dereferenceable(8) %0) unnamed_addr #0 align 2 personality ptr @__gxx_personality_v0 {
  %2 = load ptr, ptr %0, align 8, !tbaa !4
  %.not = icmp eq ptr %2, null
  br i1 %.not, label %11, label %3

3:                                                ; preds = %1
  %4 = load i32, ptr @_ZN12_GLOBAL__N_112fclose_countE, align 4, !tbaa !10
  %.not.i = icmp eq i32 %4, 0
  br i1 %.not.i, label %_ZN4test6fcloseEP8_IO_FILE.exit, label %5

5:                                                ; preds = %3
  %6 = add nsw i32 %4, 1
  store i32 %6, ptr @_ZN12_GLOBAL__N_112fclose_countE, align 4, !tbaa !10
  %.not2.i = icmp eq i32 %4, 3
  br i1 %.not2.i, label %_ZN4test6fcloseEP8_IO_FILE.exit, label %_ZN4test6fcloseEP8_IO_FILE.exit.thread

_ZN4test6fcloseEP8_IO_FILE.exit.thread:           ; preds = %5
  %7 = tail call ptr @__errno_location() #28
  store i32 4, ptr %7, align 4, !tbaa !10
  br label %9

_ZN4test6fcloseEP8_IO_FILE.exit:                  ; preds = %3, %5
  %8 = tail call i32 @fclose(ptr noundef nonnull %2)
  %.not1 = icmp eq i32 %8, 0
  br i1 %.not1, label %11, label %_ZN4test6fcloseEP8_IO_FILE.exit._crit_edge

_ZN4test6fcloseEP8_IO_FILE.exit._crit_edge:       ; preds = %_ZN4test6fcloseEP8_IO_FILE.exit
  %.pre = tail call ptr @__errno_location() #28
  br label %9

9:                                                ; preds = %_ZN4test6fcloseEP8_IO_FILE.exit._crit_edge, %_ZN4test6fcloseEP8_IO_FILE.exit.thread
  %.pre-phi = phi ptr [ %.pre, %_ZN4test6fcloseEP8_IO_FILE.exit._crit_edge ], [ %7, %_ZN4test6fcloseEP8_IO_FILE.exit.thread ]
  %10 = load i32, ptr %.pre-phi, align 4, !tbaa !10
  tail call void @_ZN3fmt3v1119report_system_errorEiPKc(i32 noundef %10, ptr noundef nonnull @.str) #29
  br label %11

11:                                               ; preds = %9, %_ZN4test6fcloseEP8_IO_FILE.exit, %1
  ret void
}